; Function Attrs: mustprogress uwtable
define noundef zeroext i1 @_ZNK5Ipopt10Journalist13ProduceOutputENS_13EJournalLevelENS_16EJournalCategoryE(ptr nocapture noundef nonnull readonly align 8 dereferenceable(40) %0, i32 noundef %1, i32 noundef %2) unnamed_addr #3 align 2 {
  %4 = getelementptr inbounds i8, ptr %0, i64 16
  %5 = getelementptr inbounds i8, ptr %0, i64 24
  %6 = load ptr, ptr %5, align 8
  %7 = load ptr, ptr %4, align 8
  %8 = ptrtoint ptr %6 to i64
  %9 = ptrtoint ptr %7 to i64
  %10 = sub i64 %8, %9
  %11 = lshr exact i64 %10, 3
  %12 = trunc i64 %11 to i32
  %13 = icmp sgt i32 %12, 0
  br i1 %13, label %.lr.ph, label %._crit_edge

14:                                               ; preds = %.lr.ph
  %indvars.iv.next = add nuw nsw i64 %indvars.iv, 1
  %15 = load ptr, ptr %5, align 8
  %16 = load ptr, ptr %4, align 8
  %17 = ptrtoint ptr %15 to i64
  %18 = ptrtoint ptr %16 to i64
  %19 = sub i64 %17, %18
  %sext = shl i64 %19, 29
  %20 = ashr i64 %sext, 32
  %21 = icmp slt i64 %indvars.iv.next, %20
  br i1 %21, label %.lr.ph, label %._crit_edge, !llvm.loop !11

.lr.ph:                                           ; preds = %3, %14
  %indvars.iv = phi i64 [ %indvars.iv.next, %14 ], [ 0, %3 ]
  %22 = phi ptr [ %16, %14 ], [ %7, %3 ]
  %23 = getelementptr inbounds %"class.Ipopt::SmartPtr", ptr %22, i64 %indvars.iv
  %24 = load ptr, ptr %23, align 8
  %25 = load ptr, ptr %24, align 8
  %26 = getelementptr inbounds i8, ptr %25, i64 40
  %27 = load ptr, ptr %26, align 8
  %28 = tail call noundef zeroext i1 %27(ptr noundef nonnull align 8 dereferenceable(176) %24, i32 noundef %2, i32 noundef %1)
  br i1 %28, label %._crit_edge, label %14

._crit_edge:                                      ; preds = %.lr.ph, %14, %3
  %.lcssa = phi i1 [ false, %3 ], [ %28, %14 ], [ %28, %.lr.ph ]
  ret i1 %.lcssa
}